; Function Attrs: nounwind uwtable
define void @ossl_asn1_string_embed_free(ptr noundef %0, i32 noundef %1) local_unnamed_addr #1 {
  %3 = icmp eq ptr %0, null
  br i1 %3, label %14, label %4

4:                                                ; preds = %2
  %5 = getelementptr inbounds nuw i8, ptr %0, i64 16
  %6 = load i64, ptr %5, align 8, !tbaa !22
  %7 = and i64 %6, 16
  %.not = icmp eq i64 %7, 0
  br i1 %.not, label %8, label %11

8:                                                ; preds = %4
  %9 = getelementptr inbounds nuw i8, ptr %0, i64 8
  %10 = load ptr, ptr %9, align 8, !tbaa !25
  tail call void @CRYPTO_free(ptr noundef %10, ptr noundef nonnull @.str, i32 noundef 367) #13
  br label %11

11:                                               ; preds = %8, %4
  %12 = icmp eq i32 %1, 0
  br i1 %12, label %13, label %14

13:                                               ; preds = %11
  tail call void @CRYPTO_free(ptr noundef nonnull %0, ptr noundef nonnull @.str, i32 noundef 369) #13
  br label %14

14:                                               ; preds = %2, %13, %11
  ret void
}